; Function Attrs: mustprogress nounwind uwtable
define dso_local void @_ZN5clang11FileManager12setStatCacheESt10unique_ptrINS_19FileSystemStatCacheESt14default_deleteIS2_EE(ptr nocapture noundef nonnull align 8 dereferenceable(808) %0, ptr nocapture noundef %1) local_unnamed_addr #0 align 2 {
  %3 = getelementptr inbounds nuw i8, ptr %0, i64 800
  %4 = load ptr, ptr %1, align 8
  store ptr null, ptr %1, align 8
  %5 = load ptr, ptr %3, align 8
  store ptr %4, ptr %3, align 8
  %.not.i.i.i.i = icmp eq ptr %5, null
  br i1 %.not.i.i.i.i, label %_ZNSt10unique_ptrIN5clang19FileSystemStatCacheESt14default_deleteIS1_EEaSEOS4_.exit, label %_ZNKSt14default_deleteIN5clang19FileSystemStatCacheEEclEPS1_.exit.i.i.i.i

_ZNKSt14default_deleteIN5clang19FileSystemStatCacheEEclEPS1_.exit.i.i.i.i: ; preds = %2
  %6 = load ptr, ptr %5, align 8
  %7 = getelementptr inbounds i8, ptr %6, i64 16
  %8 = load ptr, ptr %7, align 8
  tail call void %8(ptr noundef nonnull align 8 dereferenceable(8) %5) #17
  br label %_ZNSt10unique_ptrIN5clang19FileSystemStatCacheESt14default_deleteIS1_EEaSEOS4_.exit

_ZNSt10unique_ptrIN5clang19FileSystemStatCacheESt14default_deleteIS1_EEaSEOS4_.exit: ; preds = %2, %_ZNKSt14default_deleteIN5clang19FileSystemStatCacheEEclEPS1_.exit.i.i.i.i
  ret void
}